target datalayout = "e-m:e-p270:32:32-p271:32:32-p272:64:64-i64:64-i128:128-f80:128-n8:16:32:64-S128"
target triple = "x86_64-pc-linux-gnu"

@hf_cops_mode = internal global i32 0, align 4
@hf_cops_format = internal global i32 0, align 4
@hf_cops_operator = internal global i32 0, align 4
@hf_cops_act = internal global i32 0, align 4

; Function Attrs: alwaysinline nounwind
define internal ptr @memcpy.inline(ptr noalias %0, ptr noalias %1, i64 %2) #5 {
  %4 = alloca ptr, align 8
  %5 = alloca ptr, align 8
  %6 = alloca i64, align 8
  store ptr %0, ptr %4, align 8
  store ptr %1, ptr %5, align 8
  store i64 %2, ptr %6, align 8
  %7 = load ptr, ptr %4, align 8
  %8 = load ptr, ptr %5, align 8
  %9 = load i64, ptr %6, align 8
  %10 = load ptr, ptr %4, align 8
  %11 = call i64 @llvm.objectsize.i64.p0(ptr %10, i1 false, i1 true, i1 true)
  %12 = call ptr @__memcpy_chk(ptr noundef %7, ptr noundef %8, i64 noundef %9, i64 noundef %11) #11
  ret ptr %12
}

; Function Attrs: null_pointer_is_valid sspstrong uwtable
define internal i32 @get_uint_parameter(ptr noundef %0, i32 noundef %1) #0 {
  %3 = alloca ptr, align 8
  %4 = alloca i32, align 4
  %5 = alloca i32, align 4
  %6 = alloca ptr, align 8
  store ptr %0, ptr %3, align 8
  store i32 %1, ptr %4, align 4
  call void @llvm.lifetime.start.p0(i64 4, ptr %5) #11
  call void @llvm.lifetime.start.p0(i64 8, ptr %6) #11
  %7 = call ptr @wmem_packet_scope()
  %8 = load i32, ptr %4, align 4
  %9 = add i32 %8, 1
  %10 = sext i32 %9 to i64
  %11 = call noalias ptr @wmem_alloc(ptr noundef %7, i64 noundef %10) #12
  store ptr %11, ptr %6, align 8
  %12 = load ptr, ptr %6, align 8
  %13 = load ptr, ptr %3, align 8
  %14 = load i32, ptr %4, align 4
  %15 = sext i32 %14 to i64
  %16 = call ptr @memcpy.inline(ptr noundef %12, ptr noundef %13, i64 noundef %15) #11
  %17 = load ptr, ptr %6, align 8
  %18 = load i32, ptr %4, align 4
  %19 = sext i32 %18 to i64
  %20 = getelementptr i8, ptr %17, i64 %19
  store i8 0, ptr %20, align 1
  %21 = load ptr, ptr %6, align 8
  %22 = call i64 @g_ascii_strtoull(ptr noundef %21, ptr noundef null, i32 noundef 10)
  %23 = trunc i64 %22 to i32
  store i32 %23, ptr %5, align 4
  %24 = load i32, ptr %5, align 4
  call void @llvm.lifetime.end.p0(i64 8, ptr %6) #11
  call void @llvm.lifetime.end.p0(i64 4, ptr %5) #11
  ret i32 %24
}

; Function Attrs: null_pointer_is_valid sspstrong uwtable
define internal zeroext i1 @dissect_cops_parameter(ptr noundef %0, ptr noundef %1, ptr noundef %2, i32 noundef %3, i32 noundef %4, i16 noundef zeroext %5, ptr noundef %6, i32 noundef %7, i32 noundef %8, ptr noundef %9) #0 {
  %11 = alloca i1, align 1
  %12 = alloca ptr, align 8
  %13 = alloca ptr, align 8
  %14 = alloca ptr, align 8
  %15 = alloca i32, align 4
  %16 = alloca i32, align 4
  %17 = alloca i16, align 2
  %18 = alloca ptr, align 8
  %19 = alloca i32, align 4
  %20 = alloca i32, align 4
  %21 = alloca ptr, align 8
  %22 = alloca i32, align 4
  %23 = alloca i32, align 4
  store ptr %0, ptr %12, align 8
  store ptr %1, ptr %13, align 8
  store ptr %2, ptr %14, align 8
  store i32 %3, ptr %15, align 4
  store i32 %4, ptr %16, align 4
  store i16 %5, ptr %17, align 2
  store ptr %6, ptr %18, align 8
  store i32 %7, ptr %19, align 4
  store i32 %8, ptr %20, align 4
  store ptr %9, ptr %21, align 8
  call void @llvm.lifetime.start.p0(i64 4, ptr %22) #11
  %24 = load i32, ptr %16, align 4
  %25 = icmp eq i32 %24, 2
  br i1 %25, label %26, label %34

26:                                               ; preds = %10
  %27 = load i16, ptr %17, align 2
  %28 = zext i16 %27 to i32
  %29 = icmp eq i32 %28, 61
  br i1 %29, label %42, label %30

30:                                               ; preds = %26
  %31 = load i16, ptr %17, align 2
  %32 = zext i16 %31 to i32
  %33 = icmp eq i32 %32, 63
  br i1 %33, label %42, label %34

34:                                               ; preds = %30, %10
  %35 = load i32, ptr %16, align 4
  %36 = icmp eq i32 %35, 1
  br i1 %36, label %37, label %41

37:                                               ; preds = %34
  %38 = load i16, ptr %17, align 2
  %39 = zext i16 %38 to i32
  %40 = icmp eq i32 %39, 58
  br i1 %40, label %42, label %41

41:                                               ; preds = %37, %34
  store i1 false, ptr %11, align 1
  store i32 1, ptr %23, align 4
  br label %89

42:                                               ; preds = %37, %30, %26
  %43 = load i32, ptr %19, align 4
  %44 = icmp ugt i32 %43, 3
  br i1 %44, label %45, label %46

45:                                               ; preds = %42
  store i1 false, ptr %11, align 1
  store i32 1, ptr %23, align 4
  br label %89

46:                                               ; preds = %42
  %47 = load i32, ptr %19, align 4
  switch i32 %47, label %88 [
    i32 0, label %48
    i32 1, label %59
    i32 2, label %70
    i32 3, label %77
  ]

48:                                               ; preds = %46
  %49 = load ptr, ptr %18, align 8
  %50 = load i32, ptr %20, align 4
  %51 = call i32 @get_uint_parameter(ptr noundef %49, i32 noundef %50)
  store i32 %51, ptr %22, align 4
  %52 = load ptr, ptr %14, align 8
  %53 = load i32, ptr @hf_cops_mode, align 4
  %54 = load ptr, ptr %12, align 8
  %55 = load i32, ptr %15, align 4
  %56 = load i32, ptr %20, align 4
  %57 = load i32, ptr %22, align 4
  %58 = call ptr @proto_tree_add_uint(ptr noundef %52, i32 noundef %53, ptr noundef %54, i32 noundef %55, i32 noundef %56, i32 noundef %57)
  br label %88

59:                                               ; preds = %46
  %60 = load ptr, ptr %18, align 8
  %61 = load i32, ptr %20, align 4
  %62 = call i32 @get_uint_parameter(ptr noundef %60, i32 noundef %61)
  store i32 %62, ptr %22, align 4
  %63 = load ptr, ptr %14, align 8
  %64 = load i32, ptr @hf_cops_format, align 4
  %65 = load ptr, ptr %12, align 8
  %66 = load i32, ptr %15, align 4
  %67 = load i32, ptr %20, align 4
  %68 = load i32, ptr %22, align 4
  %69 = call ptr @proto_tree_add_uint(ptr noundef %63, i32 noundef %64, ptr noundef %65, i32 noundef %66, i32 noundef %67, i32 noundef %68)
  br label %88

70:                                               ; preds = %46
  %71 = load ptr, ptr %14, align 8
  %72 = load i32, ptr @hf_cops_operator, align 4
  %73 = load ptr, ptr %12, align 8
  %74 = load i32, ptr %15, align 4
  %75 = load i32, ptr %20, align 4
  %76 = call ptr @proto_tree_add_item(ptr noundef %71, i32 noundef %72, ptr noundef %73, i32 noundef %74, i32 noundef %75, i32 noundef 0)
  br label %88

77:                                               ; preds = %46
  %78 = load ptr, ptr %18, align 8
  %79 = load i32, ptr %20, align 4
  %80 = call i32 @get_uint_parameter(ptr noundef %78, i32 noundef %79)
  store i32 %80, ptr %22, align 4
  %81 = load ptr, ptr %14, align 8
  %82 = load i32, ptr @hf_cops_act, align 4
  %83 = load ptr, ptr %12, align 8
  %84 = load i32, ptr %15, align 4
  %85 = load i32, ptr %20, align 4
  %86 = load i32, ptr %22, align 4
  %87 = call ptr @proto_tree_add_uint(ptr noundef %81, i32 noundef %82, ptr noundef %83, i32 noundef %84, i32 noundef %85, i32 noundef %86)
  br label %88

88:                                               ; preds = %46, %77, %70, %59, %48
  store i1 true, ptr %11, align 1
  store i32 1, ptr %23, align 4
  br label %89

89:                                               ; preds = %88, %45, %41
  call void @llvm.lifetime.end.p0(i64 4, ptr %22) #11
  %90 = load i1, ptr %11, align 1
  ret i1 %90
}