; Function Attrs: null_pointer_is_valid sspstrong uwtable
define internal noundef zeroext i1 @dissect_cops_parameter(ptr noundef %0, ptr readnone captures(none) %1, ptr noundef %2, i32 noundef %3, i32 noundef %4, i16 noundef zeroext %5, ptr noundef readonly captures(none) %6, i32 noundef %7, i32 noundef %8, ptr readnone captures(none) %9) #0 {
  %11 = icmp eq i32 %4, 2
  %12 = and i16 %5, -3
  %or.cond = icmp eq i16 %12, 61
  %or.cond38 = and i1 %11, %or.cond
  br i1 %or.cond38, label %17, label %13

13:                                               ; preds = %10
  %14 = icmp ne i32 %4, 1
  %15 = icmp ne i16 %5, 58
  %or.cond5.not41 = or i1 %14, %15
  %16 = icmp ugt i32 %7, 3
  %or.cond39 = or i1 %or.cond5.not41, %16
  br i1 %or.cond39, label %61, label %18

17:                                               ; preds = %10
  %.old = icmp ugt i32 %7, 3
  br i1 %.old, label %61, label %18

18:                                               ; preds = %13, %17
  switch i32 %7, label %default.unreachable [
    i32 0, label %19
    i32 1, label %32
    i32 2, label %45
    i32 3, label %48
  ]

19:                                               ; preds = %18
  %20 = tail call ptr @wmem_packet_scope()
  %21 = add i32 %8, 1
  %22 = sext i32 %21 to i64
  %23 = tail call noalias ptr @wmem_alloc(ptr noundef %20, i64 noundef %22) #11
  %24 = sext i32 %8 to i64
  %25 = icmp ne i32 %21, -1
  tail call void @llvm.assume(i1 %25)
  %26 = tail call ptr @__memcpy_chk(ptr noundef %23, ptr noundef readonly %6, i64 noundef range(i64 -2147483648, 4294967296) %24, i64 noundef %22) #10, !alias.scope !137
  %27 = getelementptr i8, ptr %23, i64 %24
  store i8 0, ptr %27, align 1
  %28 = tail call i64 @g_ascii_strtoull(ptr noundef %23, ptr noundef null, i32 noundef 10)
  %29 = trunc i64 %28 to i32
  %30 = load i32, ptr @hf_cops_mode, align 4
  %31 = tail call ptr @proto_tree_add_uint(ptr noundef %2, i32 noundef %30, ptr noundef %0, i32 noundef %3, i32 noundef %8, i32 noundef %29)
  br label %61

32:                                               ; preds = %18
  %33 = tail call ptr @wmem_packet_scope()
  %34 = add i32 %8, 1
  %35 = sext i32 %34 to i64
  %36 = tail call noalias ptr @wmem_alloc(ptr noundef %33, i64 noundef %35) #11
  %37 = sext i32 %8 to i64
  %38 = icmp ne i32 %34, -1
  tail call void @llvm.assume(i1 %38)
  %39 = tail call ptr @__memcpy_chk(ptr noundef %36, ptr noundef readonly %6, i64 noundef range(i64 -2147483648, 4294967296) %37, i64 noundef %35) #10, !alias.scope !141
  %40 = getelementptr i8, ptr %36, i64 %37
  store i8 0, ptr %40, align 1
  %41 = tail call i64 @g_ascii_strtoull(ptr noundef %36, ptr noundef null, i32 noundef 10)
  %42 = trunc i64 %41 to i32
  %43 = load i32, ptr @hf_cops_format, align 4
  %44 = tail call ptr @proto_tree_add_uint(ptr noundef %2, i32 noundef %43, ptr noundef %0, i32 noundef %3, i32 noundef %8, i32 noundef %42)
  br label %61

45:                                               ; preds = %18
  %46 = load i32, ptr @hf_cops_operator, align 4
  %47 = tail call ptr @proto_tree_add_item(ptr noundef %2, i32 noundef %46, ptr noundef %0, i32 noundef %3, i32 noundef %8, i32 noundef 0)
  br label %61

48:                                               ; preds = %18
  %49 = tail call ptr @wmem_packet_scope()
  %50 = add i32 %8, 1
  %51 = sext i32 %50 to i64
  %52 = tail call noalias ptr @wmem_alloc(ptr noundef %49, i64 noundef %51) #11
  %53 = sext i32 %8 to i64
  %54 = icmp ne i32 %50, -1
  tail call void @llvm.assume(i1 %54)
  %55 = tail call ptr @__memcpy_chk(ptr noundef %52, ptr noundef readonly %6, i64 noundef range(i64 -2147483648, 4294967296) %53, i64 noundef %51) #10, !alias.scope !145
  %56 = getelementptr i8, ptr %52, i64 %53
  store i8 0, ptr %56, align 1
  %57 = tail call i64 @g_ascii_strtoull(ptr noundef %52, ptr noundef null, i32 noundef 10)
  %58 = trunc i64 %57 to i32
  %59 = load i32, ptr @hf_cops_act, align 4
  %60 = tail call ptr @proto_tree_add_uint(ptr noundef %2, i32 noundef %59, ptr noundef %0, i32 noundef %3, i32 noundef %8, i32 noundef %58)
  br label %61

default.unreachable:                              ; preds = %18
  unreachable

61:                                               ; preds = %19, %32, %45, %48, %17, %13
  %.0 = phi i1 [ false, %13 ], [ false, %17 ], [ true, %48 ], [ true, %45 ], [ true, %32 ], [ true, %19 ]
  ret i1 %.0
}